target datalayout = "e-m:e-p270:32:32-p271:32:32-p272:64:64-i64:64-i128:128-f80:128-n8:16:32:64-S128"
target triple = "x86_64-pc-linux-gnu"

%struct.AVChannelLayout = type { i32, i32, %union.anon, ptr }
%union.anon = type { i64 }

; Function Attrs: nounwind uwtable
define void @av_channel_layout_uninit(ptr noundef %0) #0 {
  %2 = alloca ptr, align 8
  store ptr %0, ptr %2, align 8, !tbaa !23
  %3 = load ptr, ptr %2, align 8, !tbaa !23
  %4 = getelementptr inbounds nuw %struct.AVChannelLayout, ptr %3, i32 0, i32 0
  %5 = load i32, ptr %4, align 8, !tbaa !30
  %6 = icmp eq i32 %5, 2
  br i1 %6, label %7, label %10

7:                                                ; preds = %1
  %8 = load ptr, ptr %2, align 8, !tbaa !23
  %9 = getelementptr inbounds nuw %struct.AVChannelLayout, ptr %8, i32 0, i32 2
  call void @av_freep(ptr noundef %9)
  br label %10

10:                                               ; preds = %7, %1
  %11 = load ptr, ptr %2, align 8, !tbaa !23
  call void @llvm.memset.p0.i64(ptr align 8 %11, i8 0, i64 24, i1 false)
  ret void
}