; Function Attrs: nounwind uwtable
define void @av_channel_layout_uninit(ptr noundef %0) local_unnamed_addr #0 {
  %2 = load i32, ptr %0, align 8, !tbaa !18
  %3 = icmp eq i32 %2, 2
  br i1 %3, label %4, label %6

4:                                                ; preds = %1
  %5 = getelementptr inbounds nuw i8, ptr %0, i64 8
  tail call void @av_freep(ptr noundef nonnull %5) #16
  br label %6

6:                                                ; preds = %4, %1
  tail call void @llvm.memset.p0.i64(ptr noundef nonnull align 8 dereferenceable(24) %0, i8 0, i64 24, i1 false)
  ret void
}